target datalayout = "e-m:e-p270:32:32-p271:32:32-p272:64:64-i64:64-i128:128-f80:128-n8:16:32:64-S128"
target triple = "x86_64-pc-linux-gnu"

%struct.pointf_s = type { double, double }
%struct.triangle = type { [3 x %struct.pointf_s] }

; Function Attrs: nounwind uwtable
define internal void @miter_shape(ptr dead_on_unwind noalias writable sret(%struct.triangle) align 8 %0, double %1, double %2, double %3, double %4, double %5, double %6, double noundef %7) #0 {
  %9 = alloca %struct.pointf_s, align 8
  %10 = alloca %struct.pointf_s, align 8
  %11 = alloca %struct.pointf_s, align 8
  %12 = alloca double, align 8
  %13 = alloca [2 x %struct.pointf_s], align 16
  %14 = alloca double, align 8
  %15 = alloca double, align 8
  %16 = alloca double, align 8
  %17 = alloca double, align 8
  %18 = alloca double, align 8
  %19 = alloca double, align 8
  %20 = alloca %struct.pointf_s, align 8
  %21 = alloca [2 x %struct.pointf_s], align 16
  %22 = alloca double, align 8
  %23 = alloca double, align 8
  %24 = alloca double, align 8
  %25 = alloca double, align 8
  %26 = alloca double, align 8
  %27 = alloca double, align 8
  %28 = alloca double, align 8
  %29 = alloca double, align 8
  %30 = alloca double, align 8
  %31 = alloca double, align 8
  %32 = alloca double, align 8
  %33 = alloca double, align 8
  %34 = alloca %struct.pointf_s, align 8
  %35 = alloca %struct.pointf_s, align 8
  %36 = alloca i32, align 4
  %37 = alloca double, align 8
  %38 = alloca %struct.pointf_s, align 8
  %39 = getelementptr inbounds nuw { double, double }, ptr %9, i32 0, i32 0
  store double %1, ptr %39, align 8
  %40 = getelementptr inbounds nuw { double, double }, ptr %9, i32 0, i32 1
  store double %2, ptr %40, align 8
  %41 = getelementptr inbounds nuw { double, double }, ptr %10, i32 0, i32 0
  store double %3, ptr %41, align 8
  %42 = getelementptr inbounds nuw { double, double }, ptr %10, i32 0, i32 1
  store double %4, ptr %42, align 8
  %43 = getelementptr inbounds nuw { double, double }, ptr %11, i32 0, i32 0
  store double %5, ptr %43, align 8
  %44 = getelementptr inbounds nuw { double, double }, ptr %11, i32 0, i32 1
  store double %6, ptr %44, align 8
  store double %7, ptr %12, align 8, !tbaa !53
  %45 = getelementptr inbounds nuw %struct.pointf_s, ptr %9, i32 0, i32 0
  %46 = load double, ptr %45, align 8, !tbaa !57
  %47 = getelementptr inbounds nuw %struct.pointf_s, ptr %10, i32 0, i32 0
  %48 = load double, ptr %47, align 8, !tbaa !57
  %49 = fcmp oeq double %46, %48
  br i1 %49, label %50, label %56

50:                                               ; preds = %8
  %51 = getelementptr inbounds nuw %struct.pointf_s, ptr %9, i32 0, i32 1
  %52 = load double, ptr %51, align 8, !tbaa !58
  %53 = getelementptr inbounds nuw %struct.pointf_s, ptr %10, i32 0, i32 1
  %54 = load double, ptr %53, align 8, !tbaa !58
  %55 = fcmp oeq double %52, %54
  br i1 %55, label %68, label %56

56:                                               ; preds = %50, %8
  %57 = getelementptr inbounds nuw %struct.pointf_s, ptr %11, i32 0, i32 0
  %58 = load double, ptr %57, align 8, !tbaa !57
  %59 = getelementptr inbounds nuw %struct.pointf_s, ptr %10, i32 0, i32 0
  %60 = load double, ptr %59, align 8, !tbaa !57
  %61 = fcmp oeq double %58, %60
  br i1 %61, label %62, label %72

62:                                               ; preds = %56
  %63 = getelementptr inbounds nuw %struct.pointf_s, ptr %11, i32 0, i32 1
  %64 = load double, ptr %63, align 8, !tbaa !58
  %65 = getelementptr inbounds nuw %struct.pointf_s, ptr %10, i32 0, i32 1
  %66 = load double, ptr %65, align 8, !tbaa !58
  %67 = fcmp oeq double %64, %66
  br i1 %67, label %68, label %72

68:                                               ; preds = %62, %50
  %69 = getelementptr inbounds nuw %struct.triangle, ptr %0, i32 0, i32 0
  call void @llvm.memcpy.p0.p0.i64(ptr align 8 %69, ptr align 8 %10, i64 16, i1 false), !tbaa.struct !56
  %70 = getelementptr inbounds %struct.pointf_s, ptr %69, i64 1
  call void @llvm.memcpy.p0.p0.i64(ptr align 8 %70, ptr align 8 %10, i64 16, i1 false), !tbaa.struct !56
  %71 = getelementptr inbounds %struct.pointf_s, ptr %69, i64 2
  call void @llvm.memcpy.p0.p0.i64(ptr align 8 %71, ptr align 8 %10, i64 16, i1 false), !tbaa.struct !56
  br label %235

72:                                               ; preds = %62, %56
  call void @llvm.lifetime.start.p0(i64 32, ptr %13) #9
  call void @llvm.memcpy.p0.p0.i64(ptr align 16 %13, ptr align 8 %9, i64 16, i1 false), !tbaa.struct !56
  %73 = getelementptr inbounds %struct.pointf_s, ptr %13, i64 1
  call void @llvm.memcpy.p0.p0.i64(ptr align 16 %73, ptr align 8 %10, i64 16, i1 false), !tbaa.struct !56
  call void @llvm.lifetime.start.p0(i64 8, ptr %14) #9
  %74 = getelementptr inbounds [2 x %struct.pointf_s], ptr %13, i64 0, i64 1
  %75 = getelementptr inbounds nuw %struct.pointf_s, ptr %74, i32 0, i32 0
  %76 = load double, ptr %75, align 16, !tbaa !57
  %77 = getelementptr inbounds [2 x %struct.pointf_s], ptr %13, i64 0, i64 0
  %78 = getelementptr inbounds nuw %struct.pointf_s, ptr %77, i32 0, i32 0
  %79 = load double, ptr %78, align 16, !tbaa !57
  %80 = fsub double %76, %79
  store double %80, ptr %14, align 8, !tbaa !53
  call void @llvm.lifetime.start.p0(i64 8, ptr %15) #9
  %81 = getelementptr inbounds [2 x %struct.pointf_s], ptr %13, i64 0, i64 1
  %82 = getelementptr inbounds nuw %struct.pointf_s, ptr %81, i32 0, i32 1
  %83 = load double, ptr %82, align 8, !tbaa !58
  %84 = getelementptr inbounds [2 x %struct.pointf_s], ptr %13, i64 0, i64 0
  %85 = getelementptr inbounds nuw %struct.pointf_s, ptr %84, i32 0, i32 1
  %86 = load double, ptr %85, align 8, !tbaa !58
  %87 = fsub double %83, %86
  store double %87, ptr %15, align 8, !tbaa !53
  call void @llvm.lifetime.start.p0(i64 8, ptr %16) #9
  %88 = load double, ptr %14, align 8, !tbaa !53
  %89 = load double, ptr %15, align 8, !tbaa !53
  %90 = call double @hypot(double noundef %88, double noundef %89) #9, !tbaa !10
  store double %90, ptr %16, align 8, !tbaa !53
  call void @llvm.lifetime.start.p0(i64 8, ptr %17) #9
  %91 = load double, ptr %14, align 8, !tbaa !53
  %92 = load double, ptr %16, align 8, !tbaa !53
  %93 = fdiv double %91, %92
  store double %93, ptr %17, align 8, !tbaa !53
  call void @llvm.lifetime.start.p0(i64 8, ptr %18) #9
  %94 = load double, ptr %15, align 8, !tbaa !53
  %95 = load double, ptr %16, align 8, !tbaa !53
  %96 = fdiv double %94, %95
  store double %96, ptr %18, align 8, !tbaa !53
  call void @llvm.lifetime.start.p0(i64 8, ptr %19) #9
  %97 = load double, ptr %15, align 8, !tbaa !53
  %98 = fcmp ogt double %97, 0.000000e+00
  br i1 %98, label %99, label %102

99:                                               ; preds = %72
  %100 = load double, ptr %17, align 8, !tbaa !53
  %101 = call double @acos(double noundef %100) #9, !tbaa !10
  br label %106

102:                                              ; preds = %72
  %103 = load double, ptr %17, align 8, !tbaa !53
  %104 = call double @acos(double noundef %103) #9, !tbaa !10
  %105 = fneg double %104
  br label %106

106:                                              ; preds = %102, %99
  %107 = phi double [ %101, %99 ], [ %105, %102 ]
  store double %107, ptr %19, align 8, !tbaa !53
  call void @llvm.lifetime.start.p0(i64 16, ptr %20) #9
  %108 = getelementptr inbounds nuw %struct.pointf_s, ptr %20, i32 0, i32 0
  %109 = getelementptr inbounds nuw %struct.pointf_s, ptr %10, i32 0, i32 0
  %110 = load double, ptr %109, align 8, !tbaa !57
  %111 = load double, ptr %12, align 8, !tbaa !53
  %112 = fdiv double %111, 2.000000e+00
  %113 = load double, ptr %18, align 8, !tbaa !53
  %114 = fneg double %112
  %115 = call double @llvm.fmuladd.f64(double %114, double %113, double %110)
  store double %115, ptr %108, align 8, !tbaa !57
  %116 = getelementptr inbounds nuw %struct.pointf_s, ptr %20, i32 0, i32 1
  %117 = getelementptr inbounds nuw %struct.pointf_s, ptr %10, i32 0, i32 1
  %118 = load double, ptr %117, align 8, !tbaa !58
  %119 = load double, ptr %12, align 8, !tbaa !53
  %120 = fdiv double %119, 2.000000e+00
  %121 = load double, ptr %17, align 8, !tbaa !53
  %122 = call double @llvm.fmuladd.f64(double %120, double %121, double %118)
  store double %122, ptr %116, align 8, !tbaa !58
  call void @llvm.lifetime.start.p0(i64 32, ptr %21) #9
  call void @llvm.memcpy.p0.p0.i64(ptr align 16 %21, ptr align 8 %10, i64 16, i1 false), !tbaa.struct !56
  %123 = getelementptr inbounds %struct.pointf_s, ptr %21, i64 1
  call void @llvm.memcpy.p0.p0.i64(ptr align 16 %123, ptr align 8 %11, i64 16, i1 false), !tbaa.struct !56
  call void @llvm.lifetime.start.p0(i64 8, ptr %22) #9
  %124 = getelementptr inbounds [2 x %struct.pointf_s], ptr %21, i64 0, i64 1
  %125 = getelementptr inbounds nuw %struct.pointf_s, ptr %124, i32 0, i32 0
  %126 = load double, ptr %125, align 16, !tbaa !57
  %127 = getelementptr inbounds [2 x %struct.pointf_s], ptr %21, i64 0, i64 0
  %128 = getelementptr inbounds nuw %struct.pointf_s, ptr %127, i32 0, i32 0
  %129 = load double, ptr %128, align 16, !tbaa !57
  %130 = fsub double %126, %129
  store double %130, ptr %22, align 8, !tbaa !53
  call void @llvm.lifetime.start.p0(i64 8, ptr %23) #9
  %131 = getelementptr inbounds [2 x %struct.pointf_s], ptr %21, i64 0, i64 1
  %132 = getelementptr inbounds nuw %struct.pointf_s, ptr %131, i32 0, i32 1
  %133 = load double, ptr %132, align 8, !tbaa !58
  %134 = getelementptr inbounds [2 x %struct.pointf_s], ptr %21, i64 0, i64 0
  %135 = getelementptr inbounds nuw %struct.pointf_s, ptr %134, i32 0, i32 1
  %136 = load double, ptr %135, align 8, !tbaa !58
  %137 = fsub double %133, %136
  store double %137, ptr %23, align 8, !tbaa !53
  call void @llvm.lifetime.start.p0(i64 8, ptr %24) #9
  %138 = load double, ptr %22, align 8, !tbaa !53
  %139 = load double, ptr %23, align 8, !tbaa !53
  %140 = call double @hypot(double noundef %138, double noundef %139) #9, !tbaa !10
  store double %140, ptr %24, align 8, !tbaa !53
  call void @llvm.lifetime.start.p0(i64 8, ptr %25) #9
  %141 = load double, ptr %22, align 8, !tbaa !53
  %142 = load double, ptr %24, align 8, !tbaa !53
  %143 = fdiv double %141, %142
  store double %143, ptr %25, align 8, !tbaa !53
  call void @llvm.lifetime.start.p0(i64 8, ptr %26) #9
  %144 = load double, ptr %23, align 8, !tbaa !53
  %145 = fcmp ogt double %144, 0.000000e+00
  br i1 %145, label %146, label %149

146:                                              ; preds = %106
  %147 = load double, ptr %25, align 8, !tbaa !53
  %148 = call double @acos(double noundef %147) #9, !tbaa !10
  br label %153

149:                                              ; preds = %106
  %150 = load double, ptr %25, align 8, !tbaa !53
  %151 = call double @acos(double noundef %150) #9, !tbaa !10
  %152 = fneg double %151
  br label %153

153:                                              ; preds = %149, %146
  %154 = phi double [ %148, %146 ], [ %152, %149 ]
  store double %154, ptr %26, align 8, !tbaa !53
  call void @llvm.lifetime.start.p0(i64 8, ptr %27) #9
  %155 = load double, ptr %26, align 8, !tbaa !53
  %156 = fsub double %155, 0x400921FB54442D18
  store double %156, ptr %27, align 8, !tbaa !53
  call void @llvm.lifetime.start.p0(i64 8, ptr %28) #9
  %157 = load double, ptr %27, align 8, !tbaa !53
  %158 = load double, ptr %19, align 8, !tbaa !53
  %159 = fsub double %157, %158
  %160 = load double, ptr %27, align 8, !tbaa !53
  %161 = load double, ptr %19, align 8, !tbaa !53
  %162 = fsub double %160, %161
  %163 = fcmp ole double %162, 0xC00921FB54442D18
  %164 = select i1 %163, double 0x401921FB54442D18, double 0.000000e+00
  %165 = fadd double %159, %164
  store double %165, ptr %28, align 8, !tbaa !53
  call void @llvm.lifetime.start.p0(i64 8, ptr %29) #9
  store double 4.000000e+00, ptr %29, align 8, !tbaa !53
  call void @llvm.lifetime.start.p0(i64 8, ptr %30) #9
  %166 = load double, ptr %28, align 8, !tbaa !53
  %167 = fdiv double %166, 2.000000e+00
  %168 = call double @sin(double noundef %167) #9, !tbaa !10
  %169 = fdiv double 1.000000e+00, %168
  store double %169, ptr %30, align 8, !tbaa !53
  call void @llvm.lifetime.start.p0(i64 8, ptr %31) #9
  %170 = load double, ptr %23, align 8, !tbaa !53
  %171 = load double, ptr %24, align 8, !tbaa !53
  %172 = fdiv double %170, %171
  store double %172, ptr %31, align 8, !tbaa !53
  call void @llvm.lifetime.start.p0(i64 8, ptr %32) #9
  %173 = load double, ptr %31, align 8, !tbaa !53
  %174 = fneg double %173
  store double %174, ptr %32, align 8, !tbaa !53
  call void @llvm.lifetime.start.p0(i64 8, ptr %33) #9
  %175 = load double, ptr %25, align 8, !tbaa !53
  %176 = fneg double %175
  store double %176, ptr %33, align 8, !tbaa !53
  call void @llvm.lifetime.start.p0(i64 16, ptr %34) #9
  %177 = getelementptr inbounds nuw %struct.pointf_s, ptr %34, i32 0, i32 0
  %178 = getelementptr inbounds nuw %struct.pointf_s, ptr %10, i32 0, i32 0
  %179 = load double, ptr %178, align 8, !tbaa !57
  %180 = load double, ptr %12, align 8, !tbaa !53
  %181 = fdiv double %180, 2.000000e+00
  %182 = load double, ptr %32, align 8, !tbaa !53
  %183 = call double @llvm.fmuladd.f64(double %181, double %182, double %179)
  store double %183, ptr %177, align 8, !tbaa !57
  %184 = getelementptr inbounds nuw %struct.pointf_s, ptr %34, i32 0, i32 1
  %185 = getelementptr inbounds nuw %struct.pointf_s, ptr %10, i32 0, i32 1
  %186 = load double, ptr %185, align 8, !tbaa !58
  %187 = load double, ptr %12, align 8, !tbaa !53
  %188 = fdiv double %187, 2.000000e+00
  %189 = load double, ptr %33, align 8, !tbaa !53
  %190 = fneg double %188
  %191 = call double @llvm.fmuladd.f64(double %190, double %189, double %186)
  store double %191, ptr %184, align 8, !tbaa !58
  %192 = load double, ptr %30, align 8, !tbaa !53
  %193 = fcmp ogt double %192, 4.000000e+00
  br i1 %193, label %194, label %212

194:                                              ; preds = %153
  call void @llvm.lifetime.start.p0(i64 16, ptr %35) #9
  %195 = getelementptr inbounds nuw %struct.pointf_s, ptr %35, i32 0, i32 0
  %196 = getelementptr inbounds nuw %struct.pointf_s, ptr %20, i32 0, i32 0
  %197 = load double, ptr %196, align 8, !tbaa !57
  %198 = getelementptr inbounds nuw %struct.pointf_s, ptr %34, i32 0, i32 0
  %199 = load double, ptr %198, align 8, !tbaa !57
  %200 = fadd double %197, %199
  %201 = fdiv double %200, 2.000000e+00
  store double %201, ptr %195, align 8, !tbaa !57
  %202 = getelementptr inbounds nuw %struct.pointf_s, ptr %35, i32 0, i32 1
  %203 = getelementptr inbounds nuw %struct.pointf_s, ptr %20, i32 0, i32 1
  %204 = load double, ptr %203, align 8, !tbaa !58
  %205 = getelementptr inbounds nuw %struct.pointf_s, ptr %34, i32 0, i32 1
  %206 = load double, ptr %205, align 8, !tbaa !58
  %207 = fadd double %204, %206
  %208 = fdiv double %207, 2.000000e+00
  store double %208, ptr %202, align 8, !tbaa !58
  %209 = getelementptr inbounds nuw %struct.triangle, ptr %0, i32 0, i32 0
  call void @llvm.memcpy.p0.p0.i64(ptr align 8 %209, ptr align 8 %35, i64 16, i1 false), !tbaa.struct !56
  %210 = getelementptr inbounds %struct.pointf_s, ptr %209, i64 1
  call void @llvm.memcpy.p0.p0.i64(ptr align 8 %210, ptr align 8 %20, i64 16, i1 false), !tbaa.struct !56
  %211 = getelementptr inbounds %struct.pointf_s, ptr %209, i64 2
  call void @llvm.memcpy.p0.p0.i64(ptr align 8 %211, ptr align 8 %34, i64 16, i1 false), !tbaa.struct !56
  store i32 1, ptr %36, align 4
  call void @llvm.lifetime.end.p0(i64 16, ptr %35) #9
  br label %234

212:                                              ; preds = %153
  call void @llvm.lifetime.start.p0(i64 8, ptr %37) #9
  %213 = load double, ptr %12, align 8, !tbaa !53
  %214 = fdiv double %213, 2.000000e+00
  %215 = load double, ptr %28, align 8, !tbaa !53
  %216 = fdiv double %215, 2.000000e+00
  %217 = call double @tan(double noundef %216) #9, !tbaa !10
  %218 = fdiv double %214, %217
  store double %218, ptr %37, align 8, !tbaa !53
  call void @llvm.lifetime.start.p0(i64 16, ptr %38) #9
  %219 = getelementptr inbounds nuw %struct.pointf_s, ptr %38, i32 0, i32 0
  %220 = getelementptr inbounds nuw %struct.pointf_s, ptr %20, i32 0, i32 0
  %221 = load double, ptr %220, align 8, !tbaa !57
  %222 = load double, ptr %37, align 8, !tbaa !53
  %223 = load double, ptr %17, align 8, !tbaa !53
  %224 = call double @llvm.fmuladd.f64(double %222, double %223, double %221)
  store double %224, ptr %219, align 8, !tbaa !57
  %225 = getelementptr inbounds nuw %struct.pointf_s, ptr %38, i32 0, i32 1
  %226 = getelementptr inbounds nuw %struct.pointf_s, ptr %20, i32 0, i32 1
  %227 = load double, ptr %226, align 8, !tbaa !58
  %228 = load double, ptr %37, align 8, !tbaa !53
  %229 = load double, ptr %18, align 8, !tbaa !53
  %230 = call double @llvm.fmuladd.f64(double %228, double %229, double %227)
  store double %230, ptr %225, align 8, !tbaa !58
  %231 = getelementptr inbounds nuw %struct.triangle, ptr %0, i32 0, i32 0
  call void @llvm.memcpy.p0.p0.i64(ptr align 8 %231, ptr align 8 %38, i64 16, i1 false), !tbaa.struct !56
  %232 = getelementptr inbounds %struct.pointf_s, ptr %231, i64 1
  call void @llvm.memcpy.p0.p0.i64(ptr align 8 %232, ptr align 8 %20, i64 16, i1 false), !tbaa.struct !56
  %233 = getelementptr inbounds %struct.pointf_s, ptr %231, i64 2
  call void @llvm.memcpy.p0.p0.i64(ptr align 8 %233, ptr align 8 %34, i64 16, i1 false), !tbaa.struct !56
  store i32 1, ptr %36, align 4
  call void @llvm.lifetime.end.p0(i64 16, ptr %38) #9
  call void @llvm.lifetime.end.p0(i64 8, ptr %37) #9
  br label %234

234:                                              ; preds = %212, %194
  call void @llvm.lifetime.end.p0(i64 16, ptr %34) #9
  call void @llvm.lifetime.end.p0(i64 8, ptr %33) #9
  call void @llvm.lifetime.end.p0(i64 8, ptr %32) #9
  call void @llvm.lifetime.end.p0(i64 8, ptr %31) #9
  call void @llvm.lifetime.end.p0(i64 8, ptr %30) #9
  call void @llvm.lifetime.end.p0(i64 8, ptr %29) #9
  call void @llvm.lifetime.end.p0(i64 8, ptr %28) #9
  call void @llvm.lifetime.end.p0(i64 8, ptr %27) #9
  call void @llvm.lifetime.end.p0(i64 8, ptr %26) #9
  call void @llvm.lifetime.end.p0(i64 8, ptr %25) #9
  call void @llvm.lifetime.end.p0(i64 8, ptr %24) #9
  call void @llvm.lifetime.end.p0(i64 8, ptr %23) #9
  call void @llvm.lifetime.end.p0(i64 8, ptr %22) #9
  call void @llvm.lifetime.end.p0(i64 32, ptr %21) #9
  call void @llvm.lifetime.end.p0(i64 16, ptr %20) #9
  call void @llvm.lifetime.end.p0(i64 8, ptr %19) #9
  call void @llvm.lifetime.end.p0(i64 8, ptr %18) #9
  call void @llvm.lifetime.end.p0(i64 8, ptr %17) #9
  call void @llvm.lifetime.end.p0(i64 8, ptr %16) #9
  call void @llvm.lifetime.end.p0(i64 8, ptr %15) #9
  call void @llvm.lifetime.end.p0(i64 8, ptr %14) #9
  call void @llvm.lifetime.end.p0(i64 32, ptr %13) #9
  br label %235

235:                                              ; preds = %234, %68
  ret void
}