; Function Attrs: mustprogress nofree nounwind willreturn memory(write) uwtable
define internal fastcc void @miter_shape(ptr dead_on_unwind noalias nonnull writable writeonly align 8 captures(none) initializes((0, 48)) %0, double %1, double %2, double %3, double %4, double %5, double %6, double noundef %7) unnamed_addr #6 {
  %9 = fcmp oeq double %1, %3
  %10 = fcmp oeq double %2, %4
  %or.cond = select i1 %9, i1 %10, i1 false
  br i1 %or.cond, label %14, label %11

11:                                               ; preds = %8
  %12 = fcmp oeq double %5, %3
  %13 = fcmp oeq double %6, %4
  %or.cond76 = select i1 %12, i1 %13, i1 false
  br i1 %or.cond76, label %14, label %17

14:                                               ; preds = %11, %8
  store double %3, ptr %0, align 8, !tbaa !55
  %.sroa.10.0..sroa_idx = getelementptr inbounds nuw i8, ptr %0, i64 8
  store double %4, ptr %.sroa.10.0..sroa_idx, align 8, !tbaa !55
  %15 = getelementptr inbounds nuw i8, ptr %0, i64 16
  store double %3, ptr %15, align 8, !tbaa !55
  %.sroa.10.0..sroa_idx67 = getelementptr inbounds nuw i8, ptr %0, i64 24
  store double %4, ptr %.sroa.10.0..sroa_idx67, align 8, !tbaa !55
  %16 = getelementptr inbounds nuw i8, ptr %0, i64 32
  store double %3, ptr %16, align 8, !tbaa !55
  %.sroa.10.0..sroa_idx69 = getelementptr inbounds nuw i8, ptr %0, i64 40
  store double %4, ptr %.sroa.10.0..sroa_idx69, align 8, !tbaa !55
  br label %64

17:                                               ; preds = %11
  %18 = fsub double %3, %1
  %19 = fsub double %4, %2
  %20 = tail call double @hypot(double noundef %18, double noundef %19) #12, !tbaa !3
  %21 = fdiv double %18, %20
  %22 = fdiv double %19, %20
  %23 = fcmp ogt double %19, 0.000000e+00
  %24 = tail call double @acos(double noundef %21) #12, !tbaa !3
  %25 = fneg double %24
  %26 = select i1 %23, double %24, double %25
  %27 = fmul double %7, 5.000000e-01
  %28 = fneg double %27
  %29 = tail call double @llvm.fmuladd.f64(double %28, double %22, double %3)
  %30 = tail call double @llvm.fmuladd.f64(double %27, double %21, double %4)
  %31 = fsub double %5, %3
  %32 = fsub double %6, %4
  %33 = tail call double @hypot(double noundef %31, double noundef %32) #12, !tbaa !3
  %34 = fdiv double %31, %33
  %35 = fcmp ogt double %32, 0.000000e+00
  %36 = tail call double @acos(double noundef %34) #12, !tbaa !3
  %37 = fneg double %36
  %38 = select i1 %35, double %36, double %37
  %39 = fadd double %38, 0xC00921FB54442D18
  %40 = fsub double %39, %26
  %41 = fcmp ole double %40, 0xC00921FB54442D18
  %42 = select i1 %41, double 0x401921FB54442D18, double 0.000000e+00
  %43 = fadd double %40, %42
  %44 = fmul double %43, 5.000000e-01
  %45 = tail call double @sin(double noundef %44) #12, !tbaa !3
  %46 = fdiv double 1.000000e+00, %45
  %47 = fneg double %32
  %48 = fdiv double %47, %33
  %49 = tail call double @llvm.fmuladd.f64(double %27, double %48, double %3)
  %50 = tail call double @llvm.fmuladd.f64(double %27, double %34, double %4)
  %51 = fcmp ogt double %46, 4.000000e+00
  %.sroa.43.0..sroa_idx = getelementptr inbounds nuw i8, ptr %0, i64 8
  %52 = getelementptr inbounds nuw i8, ptr %0, i64 16
  %.sroa.732.0..sroa_idx = getelementptr inbounds nuw i8, ptr %0, i64 24
  %53 = getelementptr inbounds nuw i8, ptr %0, i64 32
  %.sroa.6.0..sroa_idx = getelementptr inbounds nuw i8, ptr %0, i64 40
  br i1 %51, label %54, label %59

54:                                               ; preds = %17
  %55 = fadd double %29, %49
  %56 = fmul double %55, 5.000000e-01
  %57 = fadd double %30, %50
  %58 = fmul double %57, 5.000000e-01
  store double %56, ptr %0, align 8, !tbaa !55
  store double %58, ptr %.sroa.43.0..sroa_idx, align 8, !tbaa !55
  store double %29, ptr %52, align 8, !tbaa !55
  store double %30, ptr %.sroa.732.0..sroa_idx, align 8, !tbaa !55
  store double %49, ptr %53, align 8, !tbaa !55
  store double %50, ptr %.sroa.6.0..sroa_idx, align 8, !tbaa !55
  br label %64

59:                                               ; preds = %17
  %60 = tail call double @tan(double noundef %44) #12, !tbaa !3
  %61 = fdiv double %27, %60
  %62 = tail call double @llvm.fmuladd.f64(double %61, double %21, double %29)
  %63 = tail call double @llvm.fmuladd.f64(double %61, double %22, double %30)
  store double %62, ptr %0, align 8, !tbaa !55
  store double %63, ptr %.sroa.43.0..sroa_idx, align 8, !tbaa !55
  store double %29, ptr %52, align 8, !tbaa !55
  store double %30, ptr %.sroa.732.0..sroa_idx, align 8, !tbaa !55
  store double %49, ptr %53, align 8, !tbaa !55
  store double %50, ptr %.sroa.6.0..sroa_idx, align 8, !tbaa !55
  br label %64

64:                                               ; preds = %54, %59, %14
  ret void
}